target datalayout = "e-m:e-p270:32:32-p271:32:32-p272:64:64-i64:64-i128:128-f80:128-n8:16:32:64-S128"
target triple = "x86_64-pc-linux-gnu"

%"class.icu_77::Package" = type <{ [64 x i8], [64 x i8], ptr, [1024 x i8], i32, i32, i8, i8, i8, i8, i32, i32, [4 x i8], ptr, i32, i32, [100000 x i8], [100000 x i8], i32, [4 x i8], ptr, ptr, i32, i32, i32, i8, [3 x i8] }>
%"struct.icu_77::Item" = type { ptr, ptr, i32, i8, i8 }

; Function Attrs: mustprogress nounwind uwtable
define noundef ptr @_ZNK6icu_777Package7getItemEi(ptr noundef nonnull align 8 dereferenceable(201237) %0, i32 noundef %1) #3 align 2 {
  %3 = alloca ptr, align 8
  %4 = alloca ptr, align 8
  %5 = alloca i32, align 4
  store ptr %0, ptr %4, align 8, !tbaa !26
  store i32 %1, ptr %5, align 4, !tbaa !8
  %6 = load ptr, ptr %4, align 8
  %7 = load i32, ptr %5, align 4, !tbaa !8
  %8 = icmp sle i32 0, %7
  br i1 %8, label %9, label %20

9:                                                ; preds = %2
  %10 = load i32, ptr %5, align 4, !tbaa !8
  %11 = getelementptr inbounds nuw %"class.icu_77::Package", ptr %6, i32 0, i32 10
  %12 = load i32, ptr %11, align 4, !tbaa !37
  %13 = icmp slt i32 %10, %12
  br i1 %13, label %14, label %20

14:                                               ; preds = %9
  %15 = getelementptr inbounds nuw %"class.icu_77::Package", ptr %6, i32 0, i32 13
  %16 = load ptr, ptr %15, align 8, !tbaa !39
  %17 = load i32, ptr %5, align 4, !tbaa !8
  %18 = sext i32 %17 to i64
  %19 = getelementptr inbounds %"struct.icu_77::Item", ptr %16, i64 %18
  store ptr %19, ptr %3, align 8
  br label %21

20:                                               ; preds = %9, %2
  store ptr null, ptr %3, align 8
  br label %21

21:                                               ; preds = %20, %14
  %22 = load ptr, ptr %3, align 8
  ret ptr %22
}