; Function Attrs: mustprogress nofree norecurse nosync nounwind willreturn memory(argmem: read) uwtable
define noundef ptr @_ZNK6icu_777Package7getItemEi(ptr noundef nonnull readonly align 8 captures(none) dereferenceable(201237) %0, i32 noundef %1) local_unnamed_addr #14 align 2 {
  %3 = icmp sgt i32 %1, -1
  %4 = getelementptr inbounds nuw i8, ptr %0, i64 1172
  %5 = load i32, ptr %4, align 4
  %6 = icmp slt i32 %1, %5
  %or.cond = select i1 %3, i1 %6, i1 false
  %7 = getelementptr inbounds nuw i8, ptr %0, i64 1184
  %8 = load ptr, ptr %7, align 8
  %9 = zext nneg i32 %1 to i64
  %10 = getelementptr inbounds nuw %"struct.icu_77::Item", ptr %8, i64 %9
  %.0 = select i1 %or.cond, ptr %10, ptr null
  ret ptr %.0
}